; Function Attrs: mustprogress nofree norecurse nosync nounwind willreturn memory(argmem: write) uwtable
define dso_local void @_ZN12DyndepParserC2EP5StateP10FileReaderP10DyndepFile(ptr noundef nonnull align 8 dereferenceable(192) %0, ptr noundef %1, ptr noundef %2, ptr noundef %3) unnamed_addr #0 align 2 personality ptr @__gxx_personality_v0 {
  %5 = getelementptr inbounds i8, ptr %0, i64 8
  store ptr %1, ptr %5, align 8
  %6 = getelementptr inbounds i8, ptr %0, i64 16
  store ptr %2, ptr %6, align 8
  %7 = getelementptr inbounds i8, ptr %0, i64 24
  tail call void @llvm.memset.p0.i64(ptr noundef nonnull align 8 dereferenceable(32) %7, i8 0, i64 32, i1 false)
  store ptr getelementptr inbounds ({ [3 x ptr] }, ptr @_ZTV12DyndepParser, i64 0, i32 0, i64 2), ptr %0, align 8
  %8 = getelementptr inbounds i8, ptr %0, i64 72
  store ptr %3, ptr %8, align 8
  %9 = getelementptr inbounds i8, ptr %0, i64 80
  store ptr getelementptr inbounds ({ [5 x ptr] }, ptr @_ZTV10BindingEnv, i64 0, i32 0, i64 2), ptr %9, align 8
  %10 = getelementptr inbounds i8, ptr %0, i64 96
  store i32 0, ptr %10, align 8
  %11 = getelementptr inbounds i8, ptr %0, i64 104
  store ptr null, ptr %11, align 8
  %12 = getelementptr inbounds i8, ptr %0, i64 112
  store ptr %10, ptr %12, align 8
  %13 = getelementptr inbounds i8, ptr %0, i64 120
  store ptr %10, ptr %13, align 8
  %14 = getelementptr inbounds i8, ptr %0, i64 128
  store i64 0, ptr %14, align 8
  %15 = getelementptr inbounds i8, ptr %0, i64 144
  store i32 0, ptr %15, align 8
  %16 = getelementptr inbounds i8, ptr %0, i64 152
  store ptr null, ptr %16, align 8
  %17 = getelementptr inbounds i8, ptr %0, i64 160
  store ptr %15, ptr %17, align 8
  %18 = getelementptr inbounds i8, ptr %0, i64 168
  store ptr %15, ptr %18, align 8
  %19 = getelementptr inbounds i8, ptr %0, i64 176
  tail call void @llvm.memset.p0.i64(ptr noundef nonnull align 8 dereferenceable(16) %19, i8 0, i64 16, i1 false)
  ret void
}